target datalayout = "e-m:e-p270:32:32-p271:32:32-p272:64:64-i64:64-i128:128-f80:128-n8:16:32:64-S128"
target triple = "x86_64-pc-linux-gnu"

%class.ciFlags = type <{ i32, i8, i8, [2 x i8] }>
%class.ciMethod = type { %class.ciMetadata, %class.ciFlags, ptr, ptr, ptr, ptr, ptr, i32, i32, i32, i32, i32, i32, i32, i32, i32, i8, i8, i8, i8, i8, i8, i8, i8, i8, ptr, ptr, ptr, ptr, ptr }
%class.ciMetadata = type { %class.ciBaseObject.base, ptr }
%class.ciBaseObject.base = type <{ ptr, i32 }>

; Function Attrs: mustprogress nounwind uwtable
define linkonce_odr hidden void @_ZNK8ciMethod15check_is_loadedEv(ptr noundef nonnull align 8 dereferenceable(160) %0) #1 comdat align 2 {
  %2 = alloca ptr, align 8
  store ptr %0, ptr %2, align 8
  ret void
}

; Function Attrs: mustprogress nounwind uwtable
define linkonce_odr hidden noundef ptr @_ZNK8ciMethod6holderEv(ptr noundef nonnull align 8 dereferenceable(160) %0) #1 comdat align 2 {
  %2 = alloca ptr, align 8
  store ptr %0, ptr %2, align 8
  %3 = load ptr, ptr %2, align 8
  %4 = getelementptr inbounds %class.ciMethod, ptr %3, i32 0, i32 3
  %5 = load ptr, ptr %4, align 8
  ret ptr %5
}

; Function Attrs: mustprogress nounwind uwtable
define linkonce_odr hidden noundef i32 @_ZNK8ciMethod12intrinsic_idEv(ptr noundef nonnull align 8 dereferenceable(160) %0) #1 comdat align 2 {
  %2 = alloca ptr, align 8
  store ptr %0, ptr %2, align 8
  %3 = load ptr, ptr %2, align 8
  call void @_ZNK8ciMethod15check_is_loadedEv(ptr noundef nonnull align 8 dereferenceable(160) %3)
  %4 = getelementptr inbounds %class.ciMethod, ptr %3, i32 0, i32 10
  %5 = load i32, ptr %4, align 4
  ret i32 %5
}

; Function Attrs: mustprogress nounwind uwtable
define hidden noundef zeroext i1 @_ZNK8ciMethod18is_unboxing_methodEv(ptr noundef nonnull align 8 dereferenceable(160) %0) #1 align 2 {
  %2 = alloca i1, align 1
  %3 = alloca ptr, align 8
  store ptr %0, ptr %3, align 8
  %4 = load ptr, ptr %3, align 8
  %5 = call noundef i32 @_ZNK8ciMethod12intrinsic_idEv(ptr noundef nonnull align 8 dereferenceable(160) %4)
  %6 = icmp ne i32 %5, 0
  br i1 %6, label %7, label %14

7:                                                ; preds = %1
  %8 = call noundef ptr @_ZNK8ciMethod6holderEv(ptr noundef nonnull align 8 dereferenceable(160) %4)
  %9 = call noundef zeroext i1 @_ZNK15ciInstanceKlass12is_box_klassEv(ptr noundef nonnull align 8 dereferenceable(144) %8)
  br i1 %9, label %10, label %14

10:                                               ; preds = %7
  %11 = call noundef i32 @_ZNK8ciMethod12intrinsic_idEv(ptr noundef nonnull align 8 dereferenceable(160) %4)
  switch i32 %11, label %13 [
    i32 404, label %12
    i32 405, label %12
    i32 406, label %12
    i32 407, label %12
    i32 408, label %12
    i32 409, label %12
    i32 410, label %12
    i32 411, label %12
  ]

12:                                               ; preds = %10, %10, %10, %10, %10, %10, %10, %10
  store i1 true, ptr %2, align 1
  br label %15

13:                                               ; preds = %10
  store i1 false, ptr %2, align 1
  br label %15

14:                                               ; preds = %7, %1
  store i1 false, ptr %2, align 1
  br label %15

15:                                               ; preds = %14, %13, %12
  %16 = load i1, ptr %2, align 1
  ret i1 %16
}